target datalayout = "e-m:e-p270:32:32-p271:32:32-p272:64:64-i64:64-i128:128-f80:128-n8:16:32:64-S128"
target triple = "x86_64-pc-linux-gnu"

; Function Attrs: nounwind sspstrong uwtable
define hidden void @ruby_show_usage_line(ptr noundef %0, ptr noundef %1, ptr noundef %2, i32 noundef %3, i32 noundef %4, i32 noundef %5, i32 noundef %6) #0 {
  %8 = alloca ptr, align 8
  %9 = alloca ptr, align 8
  %10 = alloca ptr, align 8
  %11 = alloca i32, align 4
  %12 = alloca i32, align 4
  %13 = alloca i32, align 4
  %14 = alloca i32, align 4
  %15 = alloca i32, align 4
  %16 = alloca i32, align 4
  store ptr %0, ptr %8, align 8, !tbaa !7
  store ptr %1, ptr %9, align 8, !tbaa !7
  store ptr %2, ptr %10, align 8, !tbaa !7
  store i32 %3, ptr %11, align 4, !tbaa !12
  store i32 %4, ptr %12, align 4, !tbaa !12
  store i32 %5, ptr %13, align 4, !tbaa !12
  store i32 %6, ptr %14, align 4, !tbaa !12
  call void @llvm.lifetime.start.p0(i64 4, ptr %15) #24
  %17 = load ptr, ptr %8, align 8, !tbaa !7
  %18 = call i64 @strlen(ptr noundef %17) #25
  %19 = trunc i64 %18 to i32
  store i32 %19, ptr %15, align 4, !tbaa !12
  call void @llvm.lifetime.start.p0(i64 4, ptr %16) #24
  %20 = load ptr, ptr %9, align 8, !tbaa !7
  %21 = icmp ne ptr %20, null
  br i1 %21, label %22, label %26

22:                                               ; preds = %7
  %23 = load ptr, ptr %9, align 8, !tbaa !7
  %24 = call i64 @strlen(ptr noundef %23) #25
  %25 = trunc i64 %24 to i32
  br label %27

26:                                               ; preds = %7
  br label %27

27:                                               ; preds = %26, %22
  %28 = phi i32 [ %25, %22 ], [ 0, %26 ]
  store i32 %28, ptr %16, align 4, !tbaa !12
  %29 = load ptr, ptr %8, align 8, !tbaa !7
  %30 = load i32, ptr %15, align 4, !tbaa !12
  %31 = load ptr, ptr %9, align 8, !tbaa !7
  %32 = load i32, ptr %16, align 4, !tbaa !12
  %33 = load ptr, ptr %10, align 8, !tbaa !7
  %34 = load i32, ptr %11, align 4, !tbaa !12
  %35 = load i32, ptr %12, align 4, !tbaa !12
  %36 = load i32, ptr %13, align 4, !tbaa !12
  %37 = load i32, ptr %14, align 4, !tbaa !12
  call void @show_usage_part(ptr noundef %29, i32 noundef %30, ptr noundef %31, i32 noundef %32, ptr noundef %33, i32 noundef %34, i32 noundef %35, i32 noundef %36, i32 noundef %37)
  call void @llvm.lifetime.end.p0(i64 4, ptr %16) #24
  call void @llvm.lifetime.end.p0(i64 4, ptr %15) #24
  ret void
}