; Function Attrs: nounwind sspstrong uwtable
define hidden void @ruby_show_usage_line(ptr noundef %0, ptr noundef %1, ptr noundef %2, i32 noundef %3, i32 noundef %4, i32 noundef %5, i32 noundef %6) local_unnamed_addr #0 {
  %8 = tail call i64 @strlen(ptr noundef nonnull dereferenceable(1) %0) #24
  %9 = trunc i64 %8 to i32
  %.not = icmp eq ptr %1, null
  br i1 %.not, label %.split11, label %.split

.split11:                                         ; preds = %7
  tail call fastcc void @show_usage_part(ptr noundef nonnull %0, i32 noundef %9, ptr noundef null, i32 noundef 0, ptr noundef %2, i32 noundef %3, i32 noundef %4, i32 noundef %5, i32 noundef %6)
  br label %12

.split:                                           ; preds = %7
  %10 = tail call i64 @strlen(ptr noundef nonnull dereferenceable(1) %1) #24
  %11 = trunc i64 %10 to i32
  tail call fastcc void @show_usage_part(ptr noundef nonnull %0, i32 noundef %9, ptr noundef nonnull %1, i32 noundef %11, ptr noundef %2, i32 noundef %3, i32 noundef %4, i32 noundef %5, i32 noundef %6)
  br label %12

12:                                               ; preds = %.split11, %.split
  ret void
}